; Function Attrs: mustprogress uwtable
define hidden i64 @_ZNK7nanogui7TextBox14preferred_sizeEP10NVGcontext(ptr noundef nonnull align 8 dereferenceable(440) %0, ptr noundef %1) unnamed_addr #3 align 2 {
  %3 = alloca i32, align 4
  %4 = alloca i32, align 4
  %5 = tail call noundef i32 @_ZNK7nanogui6Widget9font_sizeEv(ptr noundef nonnull align 8 dereferenceable(140) %0)
  %6 = sitofp i32 %5 to float
  %7 = fmul float %6, 0x3FF6666660000000
  %8 = fptosi float %7 to i32
  %9 = getelementptr inbounds i8, ptr %0, i64 280
  %10 = load i32, ptr %9, align 8
  %11 = icmp sgt i32 %10, 0
  br i1 %11, label %12, label %21

12:                                               ; preds = %2
  call void @nvgImageSize(ptr noundef %1, i32 noundef %10, ptr noundef nonnull %3, ptr noundef nonnull %4)
  %13 = sitofp i32 %8 to float
  %14 = fmul float %13, 0x3FD99999A0000000
  %15 = load i32, ptr %3, align 4
  %16 = sitofp i32 %15 to float
  %17 = fmul float %14, %16
  %18 = load i32, ptr %4, align 4
  %19 = sitofp i32 %18 to float
  %20 = fdiv float %17, %19
  br label %27

21:                                               ; preds = %2
  %22 = getelementptr inbounds i8, ptr %0, i64 216
  %23 = tail call noundef zeroext i1 @_ZNKSt7__cxx1112basic_stringIcSt11char_traitsIcESaIcEE5emptyEv(ptr noundef nonnull align 8 dereferenceable(32) %22) #27
  br i1 %23, label %27, label %24

24:                                               ; preds = %21
  %25 = tail call noundef ptr @_ZNKSt7__cxx1112basic_stringIcSt11char_traitsIcESaIcEE5c_strEv(ptr noundef nonnull align 8 dereferenceable(32) %22) #27
  %26 = tail call float @nvgTextBounds(ptr noundef %1, float noundef 0.000000e+00, float noundef 0.000000e+00, ptr noundef %25, ptr noundef null, ptr noundef null)
  br label %27

27:                                               ; preds = %21, %24, %12
  %.0 = phi float [ %20, %12 ], [ 0.000000e+00, %21 ], [ %26, %24 ]
  %28 = getelementptr inbounds i8, ptr %0, i64 141
  %29 = load i8, ptr %28, align 1
  %30 = and i8 %29, 1
  %.not = icmp eq i8 %30, 0
  %spec.store.select = select i1 %.not, float 0.000000e+00, float 1.400000e+01
  %31 = getelementptr inbounds i8, ptr %0, i64 144
  %32 = call noundef ptr @_ZNKSt7__cxx1112basic_stringIcSt11char_traitsIcESaIcEE5c_strEv(ptr noundef nonnull align 8 dereferenceable(32) %31) #27
  %33 = call float @nvgTextBounds(ptr noundef %1, float noundef 0.000000e+00, float noundef 0.000000e+00, ptr noundef %32, ptr noundef null, ptr noundef null)
  %34 = sitofp i32 %8 to float
  %35 = fadd float %33, %34
  %36 = fadd float %.0, %35
  %37 = fadd float %spec.store.select, %36
  %38 = fptosi float %37 to i32
  %.sroa.3.0.insert.ext = zext i32 %8 to i64
  %.sroa.3.0.insert.shift = shl nuw i64 %.sroa.3.0.insert.ext, 32
  %.sroa.0.0.insert.ext = zext i32 %38 to i64
  %.sroa.0.0.insert.insert = or disjoint i64 %.sroa.3.0.insert.shift, %.sroa.0.0.insert.ext
  ret i64 %.sroa.0.0.insert.insert
}